target datalayout = "e-m:e-p270:32:32-p271:32:32-p272:64:64-i64:64-i128:128-f80:128-n8:16:32:64-S128"
target triple = "x86_64-unknown-linux-gnu"

%struct.TCGOp = type { i32, i32, %union.anon, [2 x i32], [0 x i64] }
%union.anon = type { %struct.QTailQLink }
%struct.QTailQLink = type { ptr, ptr }

@tcg_ctx = external thread_local global ptr, align 8

; Function Attrs: nounwind sspstrong uwtable
define dso_local void @vec_gen_2(i32 noundef %opc, i32 noundef %type, i32 noundef %vece, i64 noundef %r, i64 noundef %a) #0 {
entry:
  %opc.addr = alloca i32, align 4
  %type.addr = alloca i32, align 4
  %vece.addr = alloca i32, align 4
  %r.addr = alloca i64, align 8
  %a.addr = alloca i64, align 8
  %op = alloca ptr, align 8
  store i32 %opc, ptr %opc.addr, align 4
  store i32 %type, ptr %type.addr, align 4
  store i32 %vece, ptr %vece.addr, align 4
  store i64 %r, ptr %r.addr, align 8
  store i64 %a, ptr %a.addr, align 8
  %0 = load i32, ptr %opc.addr, align 4
  %call = call ptr @tcg_emit_op(i32 noundef %0, i32 noundef 2)
  store ptr %call, ptr %op, align 8
  %1 = load i32, ptr %type.addr, align 4
  %sub = sub i32 %1, 3
  %2 = load ptr, ptr %op, align 8
  %bf.load = load i32, ptr %2, align 8
  %bf.value = and i32 %sub, 255
  %bf.shl = shl i32 %bf.value, 16
  %bf.clear = and i32 %bf.load, -16711681
  %bf.set = or i32 %bf.clear, %bf.shl
  store i32 %bf.set, ptr %2, align 8
  %3 = load i32, ptr %vece.addr, align 4
  %4 = load ptr, ptr %op, align 8
  %bf.load1 = load i32, ptr %4, align 8
  %bf.value2 = and i32 %3, 255
  %bf.shl3 = shl i32 %bf.value2, 24
  %bf.clear4 = and i32 %bf.load1, 16777215
  %bf.set5 = or i32 %bf.clear4, %bf.shl3
  store i32 %bf.set5, ptr %4, align 8
  %5 = load i64, ptr %r.addr, align 8
  %6 = load ptr, ptr %op, align 8
  %args = getelementptr inbounds %struct.TCGOp, ptr %6, i32 0, i32 4
  %arrayidx = getelementptr [0 x i64], ptr %args, i64 0, i64 0
  store i64 %5, ptr %arrayidx, align 8
  %7 = load i64, ptr %a.addr, align 8
  %8 = load ptr, ptr %op, align 8
  %args6 = getelementptr inbounds %struct.TCGOp, ptr %8, i32 0, i32 4
  %arrayidx7 = getelementptr [0 x i64], ptr %args6, i64 0, i64 1
  store i64 %7, ptr %arrayidx7, align 8
  ret void
}

; Function Attrs: nounwind sspstrong uwtable
define internal void @vec_gen_op2(i32 noundef %opc, i32 noundef %vece, ptr noundef %r, ptr noundef %a) #0 {
entry:
  %opc.addr = alloca i32, align 4
  %vece.addr = alloca i32, align 4
  %r.addr = alloca ptr, align 8
  %a.addr = alloca ptr, align 8
  %rt = alloca ptr, align 8
  %at = alloca ptr, align 8
  %type = alloca i32, align 4
  store i32 %opc, ptr %opc.addr, align 4
  store i32 %vece, ptr %vece.addr, align 4
  store ptr %r, ptr %r.addr, align 8
  store ptr %a, ptr %a.addr, align 8
  %0 = load ptr, ptr %r.addr, align 8
  %call = call ptr @tcgv_vec_temp(ptr noundef %0)
  store ptr %call, ptr %rt, align 8
  %1 = load ptr, ptr %a.addr, align 8
  %call1 = call ptr @tcgv_vec_temp(ptr noundef %1)
  store ptr %call1, ptr %at, align 8
  %2 = load ptr, ptr %rt, align 8
  %bf.load = load i64, ptr %2, align 8
  %bf.lshr = lshr i64 %bf.load, 16
  %bf.clear = and i64 %bf.lshr, 255
  %bf.cast = trunc i64 %bf.clear to i32
  store i32 %bf.cast, ptr %type, align 4
  br label %do.body

do.body:                                          ; preds = %entry
  %3 = load ptr, ptr %at, align 8
  %bf.load2 = load i64, ptr %3, align 8
  %bf.lshr3 = lshr i64 %bf.load2, 16
  %bf.clear4 = and i64 %bf.lshr3, 255
  %bf.cast5 = trunc i64 %bf.clear4 to i32
  %4 = load i32, ptr %type, align 4
  %cmp = icmp uge i32 %bf.cast5, %4
  br i1 %cmp, label %if.end, label %if.then

if.then:                                          ; preds = %do.body
  unreachable

if.end:                                           ; preds = %do.body
  br label %do.end

do.end:                                           ; preds = %if.end
  %5 = load i32, ptr %opc.addr, align 4
  %6 = load i32, ptr %type, align 4
  %7 = load i32, ptr %vece.addr, align 4
  %8 = load ptr, ptr %rt, align 8
  %call6 = call i64 @temp_arg(ptr noundef %8)
  %9 = load ptr, ptr %at, align 8
  %call7 = call i64 @temp_arg(ptr noundef %9)
  call void @vec_gen_2(i32 noundef %5, i32 noundef %6, i32 noundef %7, i64 noundef %call6, i64 noundef %call7)
  ret void
}

; Function Attrs: nounwind sspstrong uwtable
define internal ptr @tcgv_i32_temp(ptr noundef %v) #0 {
entry:
  %v.addr = alloca ptr, align 8
  store ptr %v, ptr %v.addr, align 8
  %0 = call align 8 ptr @llvm.threadlocal.address.p0(ptr align 8 @tcg_ctx)
  %1 = load ptr, ptr %0, align 8
  %2 = load ptr, ptr %v.addr, align 8
  %3 = ptrtoint ptr %2 to i64
  %add.ptr = getelementptr i8, ptr %1, i64 %3
  ret ptr %add.ptr
}

; Function Attrs: nounwind sspstrong uwtable
define internal ptr @tcg_swap_vecop_list(ptr noundef %n) #0 {
entry:
  %n.addr = alloca ptr, align 8
  store ptr %n, ptr %n.addr, align 8
  ret ptr null
}

; Function Attrs: nounwind sspstrong uwtable
define dso_local void @vec_gen_3(i32 noundef %opc, i32 noundef %type, i32 noundef %vece, i64 noundef %r, i64 noundef %a, i64 noundef %b) #0 {
entry:
  %opc.addr = alloca i32, align 4
  %type.addr = alloca i32, align 4
  %vece.addr = alloca i32, align 4
  %r.addr = alloca i64, align 8
  %a.addr = alloca i64, align 8
  %b.addr = alloca i64, align 8
  %op = alloca ptr, align 8
  store i32 %opc, ptr %opc.addr, align 4
  store i32 %type, ptr %type.addr, align 4
  store i32 %vece, ptr %vece.addr, align 4
  store i64 %r, ptr %r.addr, align 8
  store i64 %a, ptr %a.addr, align 8
  store i64 %b, ptr %b.addr, align 8
  %0 = load i32, ptr %opc.addr, align 4
  %call = call ptr @tcg_emit_op(i32 noundef %0, i32 noundef 3)
  store ptr %call, ptr %op, align 8
  %1 = load i32, ptr %type.addr, align 4
  %sub = sub i32 %1, 3
  %2 = load ptr, ptr %op, align 8
  %bf.load = load i32, ptr %2, align 8
  %bf.value = and i32 %sub, 255
  %bf.shl = shl i32 %bf.value, 16
  %bf.clear = and i32 %bf.load, -16711681
  %bf.set = or i32 %bf.clear, %bf.shl
  store i32 %bf.set, ptr %2, align 8
  %3 = load i32, ptr %vece.addr, align 4
  %4 = load ptr, ptr %op, align 8
  %bf.load1 = load i32, ptr %4, align 8
  %bf.value2 = and i32 %3, 255
  %bf.shl3 = shl i32 %bf.value2, 24
  %bf.clear4 = and i32 %bf.load1, 16777215
  %bf.set5 = or i32 %bf.clear4, %bf.shl3
  store i32 %bf.set5, ptr %4, align 8
  %5 = load i64, ptr %r.addr, align 8
  %6 = load ptr, ptr %op, align 8
  %args = getelementptr inbounds %struct.TCGOp, ptr %6, i32 0, i32 4
  %arrayidx = getelementptr [0 x i64], ptr %args, i64 0, i64 0
  store i64 %5, ptr %arrayidx, align 8
  %7 = load i64, ptr %a.addr, align 8
  %8 = load ptr, ptr %op, align 8
  %args6 = getelementptr inbounds %struct.TCGOp, ptr %8, i32 0, i32 4
  %arrayidx7 = getelementptr [0 x i64], ptr %args6, i64 0, i64 1
  store i64 %7, ptr %arrayidx7, align 8
  %9 = load i64, ptr %b.addr, align 8
  %10 = load ptr, ptr %op, align 8
  %args8 = getelementptr inbounds %struct.TCGOp, ptr %10, i32 0, i32 4
  %arrayidx9 = getelementptr [0 x i64], ptr %args8, i64 0, i64 2
  store i64 %9, ptr %arrayidx9, align 8
  ret void
}

; Function Attrs: nounwind sspstrong uwtable
define dso_local void @tcg_gen_mov_vec(ptr noundef %r, ptr noundef %a) #0 {
entry:
  %r.addr = alloca ptr, align 8
  %a.addr = alloca ptr, align 8
  store ptr %r, ptr %r.addr, align 8
  store ptr %a, ptr %a.addr, align 8
  %0 = load ptr, ptr %r.addr, align 8
  %1 = load ptr, ptr %a.addr, align 8
  %cmp = icmp ne ptr %0, %1
  br i1 %cmp, label %if.then, label %if.end

if.then:                                          ; preds = %entry
  %2 = load ptr, ptr %r.addr, align 8
  %3 = load ptr, ptr %a.addr, align 8
  call void @vec_gen_op2(i32 noundef 149, i32 noundef 0, ptr noundef %2, ptr noundef %3)
  br label %if.end

if.end:                                           ; preds = %if.then, %entry
  ret void
}

; Function Attrs: nounwind sspstrong uwtable
define internal void @tcg_assert_listed_vecop(i32 noundef %op) #0 {
entry:
  %op.addr = alloca i32, align 4
  store i32 %op, ptr %op.addr, align 4
  ret void
}

; Function Attrs: nounwind sspstrong uwtable
define internal i64 @temp_arg(ptr noundef %ts) #0 {
entry:
  %ts.addr = alloca ptr, align 8
  store ptr %ts, ptr %ts.addr, align 8
  %0 = load ptr, ptr %ts.addr, align 8
  %1 = ptrtoint ptr %0 to i64
  ret i64 %1
}

; Function Attrs: nounwind sspstrong uwtable
define internal ptr @tcgv_vec_temp(ptr noundef %v) #0 {
entry:
  %v.addr = alloca ptr, align 8
  store ptr %v, ptr %v.addr, align 8
  %0 = load ptr, ptr %v.addr, align 8
  %call = call ptr @tcgv_i32_temp(ptr noundef %0)
  ret ptr %call
}

; Function Attrs: nounwind sspstrong uwtable
define internal void @do_shifti(i32 noundef %opc, i32 noundef %vece, ptr noundef %r, ptr noundef %a, i64 noundef %i) #0 {
entry:
  %opc.addr = alloca i32, align 4
  %vece.addr = alloca i32, align 4
  %r.addr = alloca ptr, align 8
  %a.addr = alloca ptr, align 8
  %i.addr = alloca i64, align 8
  %rt = alloca ptr, align 8
  %at = alloca ptr, align 8
  %ri = alloca i64, align 8
  %ai = alloca i64, align 8
  %type = alloca i32, align 4
  %can = alloca i32, align 4
  %hold_list = alloca ptr, align 8
  store i32 %opc, ptr %opc.addr, align 4
  store i32 %vece, ptr %vece.addr, align 4
  store ptr %r, ptr %r.addr, align 8
  store ptr %a, ptr %a.addr, align 8
  store i64 %i, ptr %i.addr, align 8
  %0 = load ptr, ptr %r.addr, align 8
  %call = call ptr @tcgv_vec_temp(ptr noundef %0)
  store ptr %call, ptr %rt, align 8
  %1 = load ptr, ptr %a.addr, align 8
  %call1 = call ptr @tcgv_vec_temp(ptr noundef %1)
  store ptr %call1, ptr %at, align 8
  %2 = load ptr, ptr %rt, align 8
  %call2 = call i64 @temp_arg(ptr noundef %2)
  store i64 %call2, ptr %ri, align 8
  %3 = load ptr, ptr %at, align 8
  %call3 = call i64 @temp_arg(ptr noundef %3)
  store i64 %call3, ptr %ai, align 8
  %4 = load ptr, ptr %rt, align 8
  %bf.load = load i64, ptr %4, align 8
  %bf.lshr = lshr i64 %bf.load, 16
  %bf.clear = and i64 %bf.lshr, 255
  %bf.cast = trunc i64 %bf.clear to i32
  store i32 %bf.cast, ptr %type, align 4
  br label %do.body

do.body:                                          ; preds = %entry
  %5 = load ptr, ptr %at, align 8
  %bf.load4 = load i64, ptr %5, align 8
  %bf.lshr5 = lshr i64 %bf.load4, 16
  %bf.clear6 = and i64 %bf.lshr5, 255
  %bf.cast7 = trunc i64 %bf.clear6 to i32
  %6 = load i32, ptr %type, align 4
  %cmp = icmp eq i32 %bf.cast7, %6
  br i1 %cmp, label %if.end, label %if.then

if.then:                                          ; preds = %do.body
  unreachable

if.end:                                           ; preds = %do.body
  br label %do.end

do.end:                                           ; preds = %if.end
  br label %do.body8

do.body8:                                         ; preds = %do.end
  %7 = load i64, ptr %i.addr, align 8
  %cmp9 = icmp sge i64 %7, 0
  br i1 %cmp9, label %land.lhs.true, label %if.then12

land.lhs.true:                                    ; preds = %do.body8
  %8 = load i64, ptr %i.addr, align 8
  %9 = load i32, ptr %vece.addr, align 4
  %shl = shl i32 8, %9
  %conv = sext i32 %shl to i64
  %cmp10 = icmp slt i64 %8, %conv
  br i1 %cmp10, label %if.end13, label %if.then12

if.then12:                                        ; preds = %land.lhs.true, %do.body8
  unreachable

if.end13:                                         ; preds = %land.lhs.true
  br label %do.end14

do.end14:                                         ; preds = %if.end13
  %10 = load i32, ptr %opc.addr, align 4
  call void @tcg_assert_listed_vecop(i32 noundef %10)
  %11 = load i64, ptr %i.addr, align 8
  %cmp15 = icmp eq i64 %11, 0
  br i1 %cmp15, label %if.then17, label %if.end18

if.then17:                                        ; preds = %do.end14
  %12 = load ptr, ptr %r.addr, align 8
  %13 = load ptr, ptr %a.addr, align 8
  call void @tcg_gen_mov_vec(ptr noundef %12, ptr noundef %13)
  br label %if.end31

if.end18:                                         ; preds = %do.end14
  %14 = load i32, ptr %opc.addr, align 4
  %15 = load i32, ptr %type, align 4
  %16 = load i32, ptr %vece.addr, align 4
  %call19 = call i32 @tcg_can_emit_vec_op(i32 noundef %14, i32 noundef %15, i32 noundef %16)
  store i32 %call19, ptr %can, align 4
  %17 = load i32, ptr %can, align 4
  %cmp20 = icmp sgt i32 %17, 0
  br i1 %cmp20, label %if.then22, label %if.else

if.then22:                                        ; preds = %if.end18
  %18 = load i32, ptr %opc.addr, align 4
  %19 = load i32, ptr %type, align 4
  %20 = load i32, ptr %vece.addr, align 4
  %21 = load i64, ptr %ri, align 8
  %22 = load i64, ptr %ai, align 8
  %23 = load i64, ptr %i.addr, align 8
  call void @vec_gen_3(i32 noundef %18, i32 noundef %19, i32 noundef %20, i64 noundef %21, i64 noundef %22, i64 noundef %23)
  br label %if.end31

if.else:                                          ; preds = %if.end18
  %call23 = call ptr @tcg_swap_vecop_list(ptr noundef null)
  store ptr %call23, ptr %hold_list, align 8
  br label %do.body24

do.body24:                                        ; preds = %if.else
  %24 = load i32, ptr %can, align 4
  %cmp25 = icmp slt i32 %24, 0
  br i1 %cmp25, label %if.end28, label %if.then27

if.then27:                                        ; preds = %do.body24
  unreachable

if.end28:                                         ; preds = %do.body24
  br label %do.end29

do.end29:                                         ; preds = %if.end28
  %25 = load i32, ptr %opc.addr, align 4
  %26 = load i32, ptr %type, align 4
  %27 = load i32, ptr %vece.addr, align 4
  %28 = load i64, ptr %ri, align 8
  %29 = load i64, ptr %ai, align 8
  %30 = load i64, ptr %i.addr, align 8
  call void (i32, i32, i32, i64, ...) @tcg_expand_vec_op(i32 noundef %25, i32 noundef %26, i32 noundef %27, i64 noundef %28, i64 noundef %29, i64 noundef %30)
  %31 = load ptr, ptr %hold_list, align 8
  %call30 = call ptr @tcg_swap_vecop_list(ptr noundef %31)
  br label %if.end31

if.end31:                                         ; preds = %do.end29, %if.then22, %if.then17
  ret void
}