; Function Attrs: nounwind sspstrong uwtable
define internal fastcc void @do_shifti(i32 noundef range(i32 177, 181) %opc, i32 noundef %vece, ptr noundef %r, ptr noundef %a, i64 noundef %i) unnamed_addr #0 {
entry:
  %0 = tail call align 8 ptr @llvm.threadlocal.address.p0(ptr align 8 @tcg_ctx)
  %1 = load ptr, ptr %0, align 8
  %2 = ptrtoint ptr %r to i64
  %add.ptr.i.i = getelementptr i8, ptr %1, i64 %2
  %3 = ptrtoint ptr %a to i64
  %add.ptr.i.i21 = getelementptr i8, ptr %1, i64 %3
  %4 = ptrtoint ptr %add.ptr.i.i to i64
  %5 = ptrtoint ptr %add.ptr.i.i21 to i64
  %bf.load = load i64, ptr %add.ptr.i.i, align 8
  %6 = trunc i64 %bf.load to i32
  %7 = lshr i32 %6, 16
  %bf.cast = and i32 %7, 255
  %bf.load4 = load i64, ptr %add.ptr.i.i21, align 8
  %8 = trunc i64 %bf.load4 to i32
  %9 = lshr i32 %8, 16
  %bf.cast7 = and i32 %9, 255
  %cmp = icmp eq i32 %bf.cast7, %bf.cast
  tail call void @llvm.assume(i1 %cmp)
  %cmp9 = icmp sgt i64 %i, -1
  tail call void @llvm.assume(i1 %cmp9)
  %shl = shl i32 8, %vece
  %conv = sext i32 %shl to i64
  %cmp10 = icmp slt i64 %i, %conv
  tail call void @llvm.assume(i1 %cmp10)
  %cmp15 = icmp eq i64 %i, 0
  br i1 %cmp15, label %if.then17, label %if.end18

if.then17:                                        ; preds = %entry
  %cmp.not.i = icmp eq ptr %r, %a
  br i1 %cmp.not.i, label %if.end31, label %if.then.i

if.then.i:                                        ; preds = %if.then17
  %call.i.i.i = tail call ptr @tcg_emit_op(i32 noundef 149, i32 noundef 2) #5
  %bf.load.i.i.i = load i32, ptr %call.i.i.i, align 8
  %sub.i.i.i = shl nuw nsw i32 %bf.cast, 16
  %bf.value.i.i.i = add nuw nsw i32 %sub.i.i.i, 16580608
  %bf.clear.i.i.i = and i32 %bf.load.i.i.i, 65535
  %bf.value.masked.i.i.i = and i32 %bf.value.i.i.i, 16711680
  %bf.clear4.i.i.i = or disjoint i32 %bf.clear.i.i.i, %bf.value.masked.i.i.i
  store i32 %bf.clear4.i.i.i, ptr %call.i.i.i, align 8
  %args.i.i.i = getelementptr inbounds nuw i8, ptr %call.i.i.i, i64 32
  store i64 %4, ptr %args.i.i.i, align 8
  %arrayidx7.i.i.i = getelementptr i8, ptr %call.i.i.i, i64 40
  store i64 %5, ptr %arrayidx7.i.i.i, align 8
  br label %if.end31

if.end18:                                         ; preds = %entry
  %call19 = tail call i32 @tcg_can_emit_vec_op(i32 noundef %opc, i32 noundef %bf.cast, i32 noundef %vece) #5
  %cmp20 = icmp sgt i32 %call19, 0
  br i1 %cmp20, label %if.then22, label %if.else

if.then22:                                        ; preds = %if.end18
  %call.i = tail call ptr @tcg_emit_op(i32 noundef %opc, i32 noundef 3) #5
  %bf.load.i = load i32, ptr %call.i, align 8
  %sub.i = shl nuw nsw i32 %bf.cast, 16
  %bf.value.i = add nuw nsw i32 %sub.i, 16580608
  %bf.clear.i = and i32 %bf.load.i, 65535
  %bf.value2.i = shl i32 %vece, 24
  %bf.value.masked.i = and i32 %bf.value.i, 16711680
  %bf.clear4.i = or disjoint i32 %bf.value.masked.i, %bf.clear.i
  %bf.set5.i = or disjoint i32 %bf.clear4.i, %bf.value2.i
  store i32 %bf.set5.i, ptr %call.i, align 8
  %args.i = getelementptr inbounds nuw i8, ptr %call.i, i64 32
  store i64 %4, ptr %args.i, align 8
  %arrayidx7.i = getelementptr i8, ptr %call.i, i64 40
  store i64 %5, ptr %arrayidx7.i, align 8
  %arrayidx9.i = getelementptr i8, ptr %call.i, i64 48
  store i64 %i, ptr %arrayidx9.i, align 8
  br label %if.end31

if.else:                                          ; preds = %if.end18
  %cmp25 = icmp ne i32 %call19, 0
  tail call void @llvm.assume(i1 %cmp25)
  tail call void (i32, i32, i32, i64, ...) @tcg_expand_vec_op(i32 noundef %opc, i32 noundef %bf.cast, i32 noundef %vece, i64 noundef %4, i64 noundef %5, i64 noundef %i) #5
  br label %if.end31

if.end31:                                         ; preds = %if.then.i, %if.then17, %if.else, %if.then22
  ret void
}